target datalayout = "e-m:e-p270:32:32-p271:32:32-p272:64:64-i64:64-i128:128-f80:128-n8:16:32:64-S128"
target triple = "x86_64-pc-linux-gnu"

%struct.psa_key_attributes_s = type { %struct.psa_core_key_attributes_t, ptr, i64 }
%struct.psa_core_key_attributes_t = type { i16, i16, i32, i32, %struct.psa_key_policy_s, i16 }
%struct.psa_key_policy_s = type { i32, i32, i32 }
%struct.psa_hash_operation_s = type { i32, %union.psa_driver_hash_context_t }
%union.psa_driver_hash_context_t = type { %struct.mbedtls_psa_hash_operation_t }
%struct.mbedtls_psa_hash_operation_t = type { i32, %union.anon.0 }
%union.anon.0 = type { %struct.mbedtls_sha512_context }
%struct.mbedtls_sha512_context = type { [2 x i64], [8 x i64], [128 x i8], i32 }
%struct.psa_mac_operation_s = type { i32, i8, i8, %union.psa_driver_mac_context_t }
%union.psa_driver_mac_context_t = type { %struct.mbedtls_psa_mac_operation_t }
%struct.mbedtls_psa_mac_operation_t = type { i32, %union.anon.2 }
%union.anon.2 = type { %struct.mbedtls_psa_hmac_operation_t }
%struct.mbedtls_psa_hmac_operation_t = type { i32, %struct.psa_hash_operation_s, [128 x i8] }

; Function Attrs: nounwind uwtable
define hidden i32 @psa_driver_wrapper_mac_sign_setup(ptr noundef %0, ptr noundef %1, ptr noundef %2, i64 noundef %3, i32 noundef %4) #0 {
  %6 = alloca i32, align 4
  %7 = alloca ptr, align 8
  %8 = alloca ptr, align 8
  %9 = alloca ptr, align 8
  %10 = alloca i64, align 8
  %11 = alloca i32, align 4
  %12 = alloca i32, align 4
  %13 = alloca i32, align 4
  store ptr %0, ptr %7, align 8
  store ptr %1, ptr %8, align 8
  store ptr %2, ptr %9, align 8
  store i64 %3, ptr %10, align 8
  store i32 %4, ptr %11, align 4
  store i32 -151, ptr %12, align 4
  %14 = load ptr, ptr %8, align 8
  %15 = getelementptr inbounds %struct.psa_key_attributes_s, ptr %14, i32 0, i32 0
  %16 = getelementptr inbounds %struct.psa_core_key_attributes_t, ptr %15, i32 0, i32 2
  %17 = load i32, ptr %16, align 4
  %18 = lshr i32 %17, 8
  store i32 %18, ptr %13, align 4
  %19 = load i32, ptr %13, align 4
  switch i32 %19, label %39 [
    i32 0, label %20
  ]

20:                                               ; preds = %5
  %21 = load ptr, ptr %7, align 8
  %22 = getelementptr inbounds %struct.psa_mac_operation_s, ptr %21, i32 0, i32 3
  %23 = load ptr, ptr %8, align 8
  %24 = load ptr, ptr %9, align 8
  %25 = load i64, ptr %10, align 8
  %26 = load i32, ptr %11, align 4
  %27 = call i32 @mbedtls_psa_mac_sign_setup(ptr noundef %22, ptr noundef %23, ptr noundef %24, i64 noundef %25, i32 noundef %26)
  store i32 %27, ptr %12, align 4
  %28 = load i32, ptr %12, align 4
  %29 = icmp eq i32 %28, 0
  br i1 %29, label %30, label %33

30:                                               ; preds = %20
  %31 = load ptr, ptr %7, align 8
  %32 = getelementptr inbounds %struct.psa_mac_operation_s, ptr %31, i32 0, i32 0
  store i32 1, ptr %32, align 8
  br label %33

33:                                               ; preds = %30, %20
  %34 = load i32, ptr %12, align 4
  %35 = icmp ne i32 %34, -134
  br i1 %35, label %36, label %38

36:                                               ; preds = %33
  %37 = load i32, ptr %12, align 4
  store i32 %37, ptr %6, align 4
  br label %40

38:                                               ; preds = %33
  store i32 -134, ptr %6, align 4
  br label %40

39:                                               ; preds = %5
  store i32 -135, ptr %6, align 4
  br label %40

40:                                               ; preds = %39, %38, %36
  %41 = load i32, ptr %6, align 4
  ret i32 %41
}